target datalayout = "e-m:e-p270:32:32-p271:32:32-p272:64:64-i64:64-i128:128-f80:128-n8:16:32:64-S128"
target triple = "x86_64-pc-linux-gnu"

%struct.ident_t = type { i32, i32, i32, i32, ptr }
%"class.std::vector.11" = type { %"struct.std::_Vector_base.12" }
%"struct.std::_Vector_base.12" = type { %"struct.std::_Vector_base<float, std::allocator<float>>::_Vector_impl" }
%"struct.std::_Vector_base<float, std::allocator<float>>::_Vector_impl" = type { %"struct.std::_Vector_base<float, std::allocator<float>>::_Vector_impl_data" }
%"struct.std::_Vector_base<float, std::allocator<float>>::_Vector_impl_data" = type { ptr, ptr, ptr }
%"struct.faiss::AdditiveQuantizer" = type <{ %"struct.faiss::Quantizer", i64, %"class.std::vector", %"class.std::vector.11", %"class.std::vector", i64, i64, i64, i8, i8, i8, [5 x i8], %"struct.faiss::IndexFlat1D", %"class.std::vector.11", i64, i32, float, float, [4 x i8] }>
%"struct.faiss::Quantizer" = type { ptr, i64, i64 }
%"class.std::vector" = type { %"struct.std::_Vector_base" }
%"struct.std::_Vector_base" = type { %"struct.std::_Vector_base<unsigned long, std::allocator<unsigned long>>::_Vector_impl" }
%"struct.std::_Vector_base<unsigned long, std::allocator<unsigned long>>::_Vector_impl" = type { %"struct.std::_Vector_base<unsigned long, std::allocator<unsigned long>>::_Vector_impl_data" }
%"struct.std::_Vector_base<unsigned long, std::allocator<unsigned long>>::_Vector_impl_data" = type { ptr, ptr, ptr }
%"struct.faiss::IndexFlat1D" = type { %"struct.faiss::IndexFlatL2", i8, %"class.std::vector.21" }
%"struct.faiss::IndexFlatL2" = type { %"struct.faiss::IndexFlat", %"class.std::vector.11" }
%"struct.faiss::IndexFlat" = type { %"struct.faiss::IndexFlatCodes" }
%"struct.faiss::IndexFlatCodes" = type { %"struct.faiss::Index.base", i64, %"class.std::vector.16" }
%"struct.faiss::Index.base" = type <{ ptr, i32, [4 x i8], i64, i8, i8, [2 x i8], i32, float }>
%"class.std::vector.16" = type { %"struct.std::_Vector_base.17" }
%"struct.std::_Vector_base.17" = type { %"struct.std::_Vector_base<unsigned char, std::allocator<unsigned char>>::_Vector_impl" }
%"struct.std::_Vector_base<unsigned char, std::allocator<unsigned char>>::_Vector_impl" = type { %"struct.std::_Vector_base<unsigned char, std::allocator<unsigned char>>::_Vector_impl_data" }
%"struct.std::_Vector_base<unsigned char, std::allocator<unsigned char>>::_Vector_impl_data" = type { ptr, ptr, ptr }
%"class.std::vector.21" = type { %"struct.std::_Vector_base.22" }
%"struct.std::_Vector_base.22" = type { %"struct.std::_Vector_base<long, std::allocator<long>>::_Vector_impl" }
%"struct.std::_Vector_base<long, std::allocator<long>>::_Vector_impl" = type { %"struct.std::_Vector_base<long, std::allocator<long>>::_Vector_impl_data" }
%"struct.std::_Vector_base<long, std::allocator<long>>::_Vector_impl_data" = type { ptr, ptr, ptr }
%"struct.faiss::LocalSearchQuantizer" = type <{ %"struct.faiss::AdditiveQuantizer.base", [4 x i8], i64, i64, i64, i64, i64, float, float, i64, i32, [4 x i8], i64, ptr, i8, [7 x i8] }>
%"struct.faiss::AdditiveQuantizer.base" = type <{ %"struct.faiss::Quantizer", i64, %"class.std::vector", %"class.std::vector.11", %"class.std::vector", i64, i64, i64, i8, i8, i8, [5 x i8], %"struct.faiss::IndexFlat1D", %"class.std::vector.11", i64, i32, float, float }>

@1 = private unnamed_addr constant %struct.ident_t { i32 0, i32 514, i32 0, i32 22, ptr @0 }, align 8

; Function Attrs: mustprogress nounwind uwtable
define linkonce_odr noundef ptr @_ZNKSt6vectorIfSaIfEE11_M_data_ptrIfEEPT_S4_(ptr noundef nonnull align 8 dereferenceable(24) %0, ptr noundef %1) #0 comdat align 2 {
  %3 = alloca ptr, align 8
  %4 = alloca ptr, align 8
  store ptr %0, ptr %3, align 8
  store ptr %1, ptr %4, align 8
  %5 = load ptr, ptr %4, align 8
  ret ptr %5
}

; Function Attrs: mustprogress nounwind uwtable
define linkonce_odr noundef ptr @_ZNKSt6vectorIfSaIfEE4dataEv(ptr noundef nonnull align 8 dereferenceable(24) %0) #0 comdat align 2 {
  %2 = alloca ptr, align 8
  store ptr %0, ptr %2, align 8
  %3 = load ptr, ptr %2, align 8
  %4 = getelementptr inbounds %"struct.std::_Vector_base.12", ptr %3, i32 0, i32 0
  %5 = getelementptr inbounds %"struct.std::_Vector_base<float, std::allocator<float>>::_Vector_impl_data", ptr %4, i32 0, i32 0
  %6 = load ptr, ptr %5, align 8
  %7 = call noundef ptr @_ZNKSt6vectorIfSaIfEE11_M_data_ptrIfEEPT_S4_(ptr noundef nonnull align 8 dereferenceable(24) %3, ptr noundef %6) #4
  ret ptr %7
}

; Function Attrs: norecurse nounwind uwtable
define internal void @_ZNK5faiss20LocalSearchQuantizer20compute_binary_termsEPf.omp_outlined(ptr noalias noundef %0, ptr noalias noundef %1, ptr noundef %2, ptr noundef nonnull align 8 dereferenceable(8) %3) #11 personality ptr @__gxx_personality_v0 {
  %5 = alloca ptr, align 8
  %6 = alloca ptr, align 8
  %7 = alloca ptr, align 8
  %8 = alloca ptr, align 8
  %9 = alloca i64, align 8
  %10 = alloca i64, align 8
  %11 = alloca i64, align 8
  %12 = alloca i64, align 8
  %13 = alloca i64, align 8
  %14 = alloca i64, align 8
  %15 = alloca i64, align 8
  %16 = alloca i32, align 4
  %17 = alloca i64, align 8
  %18 = alloca i64, align 8
  %19 = alloca i64, align 8
  %20 = alloca i64, align 8
  %21 = alloca i64, align 8
  %22 = alloca ptr, align 8
  %23 = alloca ptr, align 8
  %24 = alloca float, align 4
  store ptr %0, ptr %5, align 8
  store ptr %1, ptr %6, align 8
  store ptr %2, ptr %7, align 8
  store ptr %3, ptr %8, align 8
  %25 = load ptr, ptr %7, align 8
  %26 = load ptr, ptr %8, align 8
  %27 = getelementptr inbounds %"struct.faiss::AdditiveQuantizer", ptr %25, i32 0, i32 1
  %28 = load i64, ptr %27, align 8
  %29 = getelementptr inbounds %"struct.faiss::AdditiveQuantizer", ptr %25, i32 0, i32 1
  %30 = load i64, ptr %29, align 8
  %31 = mul i64 %28, %30
  store i64 %31, ptr %10, align 8
  %32 = load i64, ptr %10, align 8
  %33 = sub i64 %32, 0
  %34 = udiv i64 %33, 1
  %35 = sub i64 %34, 1
  store i64 %35, ptr %11, align 8
  store i64 0, ptr %12, align 8
  %36 = load i64, ptr %10, align 8
  %37 = icmp ult i64 0, %36
  br i1 %37, label %38, label %162

38:                                               ; preds = %4
  store i64 0, ptr %13, align 8
  %39 = load i64, ptr %11, align 8
  store i64 %39, ptr %14, align 8
  store i64 1, ptr %15, align 8
  store i32 0, ptr %16, align 4
  %40 = load ptr, ptr %5, align 8
  %41 = load i32, ptr %40, align 4
  call void @__kmpc_for_static_init_8u(ptr @1, i32 %41, i32 34, ptr %16, ptr %13, ptr %14, ptr %15, i64 1, i64 1)
  %42 = load i64, ptr %14, align 8
  %43 = load i64, ptr %11, align 8
  %44 = icmp ugt i64 %42, %43
  br i1 %44, label %45, label %47

45:                                               ; preds = %38
  %46 = load i64, ptr %11, align 8
  br label %49

47:                                               ; preds = %38
  %48 = load i64, ptr %14, align 8
  br label %49

49:                                               ; preds = %47, %45
  %50 = phi i64 [ %46, %45 ], [ %48, %47 ]
  store i64 %50, ptr %14, align 8
  %51 = load i64, ptr %13, align 8
  store i64 %51, ptr %9, align 8
  br label %52

52:                                               ; preds = %155, %49
  %53 = load i64, ptr %9, align 8
  %54 = load i64, ptr %14, align 8
  %55 = add i64 %54, 1
  %56 = icmp ult i64 %53, %55
  br i1 %56, label %57, label %158

57:                                               ; preds = %52
  %58 = load i64, ptr %9, align 8
  %59 = mul i64 %58, 1
  %60 = add i64 0, %59
  store i64 %60, ptr %17, align 8
  %61 = load i64, ptr %17, align 8
  %62 = getelementptr inbounds %"struct.faiss::AdditiveQuantizer", ptr %25, i32 0, i32 1
  %63 = load i64, ptr %62, align 8
  %64 = udiv i64 %61, %63
  store i64 %64, ptr %18, align 8
  %65 = load i64, ptr %17, align 8
  %66 = getelementptr inbounds %"struct.faiss::AdditiveQuantizer", ptr %25, i32 0, i32 1
  %67 = load i64, ptr %66, align 8
  %68 = urem i64 %65, %67
  store i64 %68, ptr %19, align 8
  store i64 0, ptr %20, align 8
  br label %69

69:                                               ; preds = %150, %57
  %70 = load i64, ptr %20, align 8
  %71 = getelementptr inbounds %"struct.faiss::LocalSearchQuantizer", ptr %25, i32 0, i32 2
  %72 = load i64, ptr %71, align 8
  %73 = icmp ult i64 %70, %72
  br i1 %73, label %74, label %153

74:                                               ; preds = %69
  store i64 0, ptr %21, align 8
  br label %75

75:                                               ; preds = %146, %74
  %76 = load i64, ptr %21, align 8
  %77 = getelementptr inbounds %"struct.faiss::LocalSearchQuantizer", ptr %25, i32 0, i32 2
  %78 = load i64, ptr %77, align 8
  %79 = icmp ult i64 %76, %78
  br i1 %79, label %80, label %149

80:                                               ; preds = %75
  %81 = getelementptr inbounds %"struct.faiss::AdditiveQuantizer", ptr %25, i32 0, i32 3
  %82 = call noundef ptr @_ZNKSt6vectorIfSaIfEE4dataEv(ptr noundef nonnull align 8 dereferenceable(24) %81) #4
  %83 = load i64, ptr %18, align 8
  %84 = getelementptr inbounds %"struct.faiss::LocalSearchQuantizer", ptr %25, i32 0, i32 2
  %85 = load i64, ptr %84, align 8
  %86 = mul i64 %83, %85
  %87 = getelementptr inbounds %"struct.faiss::Quantizer", ptr %25, i32 0, i32 1
  %88 = load i64, ptr %87, align 8
  %89 = mul i64 %86, %88
  %90 = getelementptr inbounds float, ptr %82, i64 %89
  %91 = load i64, ptr %20, align 8
  %92 = getelementptr inbounds %"struct.faiss::Quantizer", ptr %25, i32 0, i32 1
  %93 = load i64, ptr %92, align 8
  %94 = mul i64 %91, %93
  %95 = getelementptr inbounds float, ptr %90, i64 %94
  store ptr %95, ptr %22, align 8
  %96 = getelementptr inbounds %"struct.faiss::AdditiveQuantizer", ptr %25, i32 0, i32 3
  %97 = call noundef ptr @_ZNKSt6vectorIfSaIfEE4dataEv(ptr noundef nonnull align 8 dereferenceable(24) %96) #4
  %98 = load i64, ptr %19, align 8
  %99 = getelementptr inbounds %"struct.faiss::LocalSearchQuantizer", ptr %25, i32 0, i32 2
  %100 = load i64, ptr %99, align 8
  %101 = mul i64 %98, %100
  %102 = getelementptr inbounds %"struct.faiss::Quantizer", ptr %25, i32 0, i32 1
  %103 = load i64, ptr %102, align 8
  %104 = mul i64 %101, %103
  %105 = getelementptr inbounds float, ptr %97, i64 %104
  %106 = load i64, ptr %21, align 8
  %107 = getelementptr inbounds %"struct.faiss::Quantizer", ptr %25, i32 0, i32 1
  %108 = load i64, ptr %107, align 8
  %109 = mul i64 %106, %108
  %110 = getelementptr inbounds float, ptr %105, i64 %109
  store ptr %110, ptr %23, align 8
  %111 = load ptr, ptr %22, align 8
  %112 = load ptr, ptr %23, align 8
  %113 = getelementptr inbounds %"struct.faiss::Quantizer", ptr %25, i32 0, i32 1
  %114 = load i64, ptr %113, align 8
  %115 = invoke noundef float @_ZN5faiss18fvec_inner_productEPKfS1_m(ptr noundef %111, ptr noundef %112, i64 noundef %114)
          to label %116 unwind label %163

116:                                              ; preds = %80
  store float %115, ptr %24, align 4
  %117 = load float, ptr %24, align 4
  %118 = fmul float %117, 2.000000e+00
  %119 = load ptr, ptr %26, align 8
  %120 = load i64, ptr %18, align 8
  %121 = getelementptr inbounds %"struct.faiss::AdditiveQuantizer", ptr %25, i32 0, i32 1
  %122 = load i64, ptr %121, align 8
  %123 = mul i64 %120, %122
  %124 = getelementptr inbounds %"struct.faiss::LocalSearchQuantizer", ptr %25, i32 0, i32 2
  %125 = load i64, ptr %124, align 8
  %126 = mul i64 %123, %125
  %127 = getelementptr inbounds %"struct.faiss::LocalSearchQuantizer", ptr %25, i32 0, i32 2
  %128 = load i64, ptr %127, align 8
  %129 = mul i64 %126, %128
  %130 = load i64, ptr %19, align 8
  %131 = getelementptr inbounds %"struct.faiss::LocalSearchQuantizer", ptr %25, i32 0, i32 2
  %132 = load i64, ptr %131, align 8
  %133 = mul i64 %130, %132
  %134 = getelementptr inbounds %"struct.faiss::LocalSearchQuantizer", ptr %25, i32 0, i32 2
  %135 = load i64, ptr %134, align 8
  %136 = mul i64 %133, %135
  %137 = add i64 %129, %136
  %138 = load i64, ptr %20, align 8
  %139 = getelementptr inbounds %"struct.faiss::LocalSearchQuantizer", ptr %25, i32 0, i32 2
  %140 = load i64, ptr %139, align 8
  %141 = mul i64 %138, %140
  %142 = add i64 %137, %141
  %143 = load i64, ptr %21, align 8
  %144 = add i64 %142, %143
  %145 = getelementptr inbounds float, ptr %119, i64 %144
  store float %118, ptr %145, align 4
  br label %146

146:                                              ; preds = %116
  %147 = load i64, ptr %21, align 8
  %148 = add i64 %147, 1
  store i64 %148, ptr %21, align 8
  br label %75, !llvm.loop !68

149:                                              ; preds = %75
  br label %150

150:                                              ; preds = %149
  %151 = load i64, ptr %20, align 8
  %152 = add i64 %151, 1
  store i64 %152, ptr %20, align 8
  br label %69, !llvm.loop !69

153:                                              ; preds = %69
  br label %154

154:                                              ; preds = %153
  br label %155

155:                                              ; preds = %154
  %156 = load i64, ptr %9, align 8
  %157 = add i64 %156, 1
  store i64 %157, ptr %9, align 8
  br label %52

158:                                              ; preds = %52
  br label %159

159:                                              ; preds = %158
  %160 = load ptr, ptr %5, align 8
  %161 = load i32, ptr %160, align 4
  call void @__kmpc_for_static_fini(ptr @1, i32 %161)
  br label %162

162:                                              ; preds = %159, %4
  ret void

163:                                              ; preds = %80
  %164 = landingpad { ptr, i32 }
          catch ptr null
  %165 = extractvalue { ptr, i32 } %164, 0
  call void @__clang_call_terminate(ptr %165) #20
  unreachable
}