; Function Attrs: norecurse nounwind uwtable
define internal void @_ZNK5faiss20LocalSearchQuantizer20compute_binary_termsEPf.omp_outlined(ptr noalias nocapture noundef readonly %0, ptr noalias nocapture readnone %1, ptr nocapture noundef readonly %2, ptr nocapture noundef nonnull readonly align 8 dereferenceable(8) %3) #11 personality ptr @__gxx_personality_v0 {
  %5 = alloca i64, align 8
  %6 = alloca i64, align 8
  %7 = alloca i64, align 8
  %8 = alloca i32, align 4
  %9 = getelementptr inbounds i8, ptr %2, i64 24
  %10 = load i64, ptr %9, align 8
  %11 = mul i64 %10, %10
  %.not = icmp eq i64 %11, 0
  br i1 %.not, label %72, label %12

12:                                               ; preds = %4
  %13 = add i64 %11, -1
  store i64 0, ptr %5, align 8
  store i64 %13, ptr %6, align 8
  store i64 1, ptr %7, align 8
  store i32 0, ptr %8, align 4
  %14 = load i32, ptr %0, align 4
  call void @__kmpc_for_static_init_8u(ptr nonnull @1, i32 %14, i32 34, ptr nonnull %8, ptr nonnull %5, ptr nonnull %6, ptr nonnull %7, i64 1, i64 1)
  %15 = load i64, ptr %6, align 8
  %16 = call i64 @llvm.umin.i64(i64 %15, i64 %13)
  store i64 %16, ptr %6, align 8
  %17 = load i64, ptr %5, align 8
  %.not44 = icmp ugt i64 %17, %16
  br i1 %.not44, label %._crit_edge36, label %.lr.ph35

.lr.ph35:                                         ; preds = %12
  %18 = getelementptr inbounds i8, ptr %2, i64 312
  %19 = getelementptr inbounds i8, ptr %2, i64 56
  %20 = getelementptr inbounds i8, ptr %2, i64 8
  %21 = load i64, ptr %18, align 8
  %.not37 = icmp eq i64 %21, 0
  br i1 %.not37, label %._crit_edge36, label %.lr.ph35.split

.lr.ph35.split:                                   ; preds = %.lr.ph35, %._crit_edge32
  %22 = phi i64 [ %64, %._crit_edge32 ], [ %16, %.lr.ph35 ]
  %23 = phi i64 [ %65, %._crit_edge32 ], [ %21, %.lr.ph35 ]
  %24 = phi i64 [ %66, %._crit_edge32 ], [ %21, %.lr.ph35 ]
  %25 = phi i64 [ %67, %._crit_edge32 ], [ %21, %.lr.ph35 ]
  %26 = phi i64 [ %68, %._crit_edge32 ], [ 1, %.lr.ph35 ]
  %.033 = phi i64 [ %69, %._crit_edge32 ], [ %17, %.lr.ph35 ]
  %27 = load i64, ptr %9, align 8
  %28 = udiv i64 %.033, %27
  %29 = urem i64 %.033, %27
  %.not38 = icmp eq i64 %26, 0
  br i1 %.not38, label %._crit_edge32, label %.preheader.lr.ph

.preheader.lr.ph:                                 ; preds = %.lr.ph35.split
  %.not39 = icmp eq i64 %25, 0
  br i1 %.not39, label %._crit_edge32, label %.preheader

.preheader:                                       ; preds = %.preheader.lr.ph, %._crit_edge
  %30 = phi i64 [ %61, %._crit_edge ], [ %23, %.preheader.lr.ph ]
  %31 = phi i64 [ %61, %._crit_edge ], [ %24, %.preheader.lr.ph ]
  %.02831 = phi i64 [ %62, %._crit_edge ], [ 0, %.preheader.lr.ph ]
  %.not40 = icmp eq i64 %31, 0
  br i1 %.not40, label %._crit_edge, label %.lr.ph

.lr.ph:                                           ; preds = %.preheader, %46
  %32 = phi i64 [ %59, %46 ], [ %31, %.preheader ]
  %.02930 = phi i64 [ %58, %46 ], [ 0, %.preheader ]
  %33 = load ptr, ptr %19, align 8
  %34 = mul i64 %32, %28
  %35 = load i64, ptr %20, align 8
  %36 = mul i64 %34, %35
  %37 = getelementptr inbounds float, ptr %33, i64 %36
  %38 = mul i64 %35, %.02831
  %39 = getelementptr inbounds float, ptr %37, i64 %38
  %40 = mul i64 %32, %29
  %41 = mul i64 %40, %35
  %42 = getelementptr inbounds float, ptr %33, i64 %41
  %43 = mul i64 %35, %.02930
  %44 = getelementptr inbounds float, ptr %42, i64 %43
  %45 = invoke noundef float @_ZN5faiss18fvec_inner_productEPKfS1_m(ptr noundef %39, ptr noundef %44, i64 noundef %35)
          to label %46 unwind label %73

46:                                               ; preds = %.lr.ph
  %47 = fmul float %45, 2.000000e+00
  %48 = load ptr, ptr %3, align 8
  %49 = load i64, ptr %9, align 8
  %50 = mul i64 %49, %28
  %51 = load i64, ptr %18, align 8
  %52 = add i64 %50, %29
  %53 = mul i64 %52, %51
  %54 = add i64 %53, %.02831
  %55 = mul i64 %54, %51
  %56 = getelementptr float, ptr %48, i64 %55
  %57 = getelementptr float, ptr %56, i64 %.02930
  store float %47, ptr %57, align 4
  %58 = add nuw i64 %.02930, 1
  %59 = load i64, ptr %18, align 8
  %60 = icmp ult i64 %58, %59
  br i1 %60, label %.lr.ph, label %._crit_edge, !llvm.loop !72

._crit_edge:                                      ; preds = %46, %.preheader
  %61 = phi i64 [ %30, %.preheader ], [ %59, %46 ]
  %62 = add nuw i64 %.02831, 1
  %63 = icmp ult i64 %62, %61
  br i1 %63, label %.preheader, label %._crit_edge32.loopexit41, !llvm.loop !73

._crit_edge32.loopexit41:                         ; preds = %._crit_edge
  %.pre = load i64, ptr %6, align 8
  br label %._crit_edge32

._crit_edge32:                                    ; preds = %.preheader.lr.ph, %._crit_edge32.loopexit41, %.lr.ph35.split
  %64 = phi i64 [ %.pre, %._crit_edge32.loopexit41 ], [ %22, %.lr.ph35.split ], [ %22, %.preheader.lr.ph ]
  %65 = phi i64 [ %61, %._crit_edge32.loopexit41 ], [ %23, %.lr.ph35.split ], [ %23, %.preheader.lr.ph ]
  %66 = phi i64 [ %61, %._crit_edge32.loopexit41 ], [ %24, %.lr.ph35.split ], [ %24, %.preheader.lr.ph ]
  %67 = phi i64 [ %61, %._crit_edge32.loopexit41 ], [ %25, %.lr.ph35.split ], [ 0, %.preheader.lr.ph ]
  %68 = phi i64 [ %61, %._crit_edge32.loopexit41 ], [ 0, %.lr.ph35.split ], [ 0, %.preheader.lr.ph ]
  %69 = add nuw i64 %.033, 1
  %70 = add i64 %64, 1
  %71 = icmp ult i64 %69, %70
  br i1 %71, label %.lr.ph35.split, label %._crit_edge36, !llvm.loop !74

._crit_edge36:                                    ; preds = %._crit_edge32, %.lr.ph35, %12
  call void @__kmpc_for_static_fini(ptr nonnull @1, i32 %14)
  br label %72

72:                                               ; preds = %._crit_edge36, %4
  ret void

73:                                               ; preds = %.lr.ph
  %74 = landingpad { ptr, i32 }
          catch ptr null
  %75 = extractvalue { ptr, i32 } %74, 0
  call void @__clang_call_terminate(ptr %75) #28
  unreachable
}